; ModuleID = 'source-C-CXX/8/1366.c'
source_filename = "source-C-CXX/8/1366.c"
target datalayout = "e-m:e-p270:32:32-p271:32:32-p272:64:64-i64:64-f80:128-n8:16:32:64-S128"
target triple = "x86_64-pc-linux-gnu"

%struct.Patient = type { [10 x i8], i32 }

@.str = private unnamed_addr constant [3 x i8] c"%d\00", align 1
@.str.1 = private unnamed_addr constant [6 x i8] c"%s %d\00", align 1
@a = dso_local global [100 x %struct.Patient] zeroinitializer, align 16
@e = dso_local local_unnamed_addr global %struct.Patient zeroinitializer, align 4
@b = dso_local global [100 x %struct.Patient] zeroinitializer, align 16

; Function Attrs: nofree nounwind sspstrong uwtable
define dso_local i32 @main() local_unnamed_addr #0 {
  %1 = alloca i32, align 4
  %2 = bitcast i32* %1 to i8*
  call void @llvm.lifetime.start.p0i8(i64 4, i8* nonnull %2) #5
  %3 = call i32 (i8*, ...) @__isoc99_scanf(i8* getelementptr inbounds ([3 x i8], [3 x i8]* @.str, i64 0, i64 0), i32* nonnull %1)
  %4 = load i32, i32* %1, align 4, !tbaa !5
  %5 = icmp sgt i32 %4, 0
  br i1 %5, label %8, label %88

6:                                                ; preds = %8
  %7 = icmp sgt i32 %14, 0
  br i1 %7, label %17, label %64

8:                                                ; preds = %0, %8
  %9 = phi i64 [ %13, %8 ], [ 0, %0 ]
  %10 = getelementptr inbounds [100 x %struct.Patient], [100 x %struct.Patient]* @a, i64 0, i64 %9, i32 0, i64 0
  %11 = getelementptr inbounds [100 x %struct.Patient], [100 x %struct.Patient]* @a, i64 0, i64 %9, i32 1
  %12 = call i32 (i8*, ...) @__isoc99_scanf(i8* getelementptr inbounds ([6 x i8], [6 x i8]* @.str.1, i64 0, i64 0), i8* nonnull %10, i32* nonnull %11)
  %13 = add nuw nsw i64 %9, 1
  %14 = load i32, i32* %1, align 4, !tbaa !5
  %15 = sext i32 %14 to i64
  %16 = icmp slt i64 %13, %15
  br i1 %16, label %8, label %6, !llvm.loop !9

17:                                               ; preds = %6
  %18 = zext i32 %14 to i64
  br label %21

19:                                               ; preds = %32
  %20 = icmp sgt i32 %33, 0
  br i1 %20, label %36, label %64

21:                                               ; preds = %17, %32
  %22 = phi i64 [ 0, %17 ], [ %34, %32 ]
  %23 = phi i32 [ 0, %17 ], [ %33, %32 ]
  %24 = getelementptr inbounds [100 x %struct.Patient], [100 x %struct.Patient]* @a, i64 0, i64 %22, i32 1
  %25 = load i32, i32* %24, align 4, !tbaa !11
  %26 = icmp sgt i32 %25, 59
  br i1 %26, label %27, label %32

27:                                               ; preds = %21
  %28 = sext i32 %23 to i64
  %29 = getelementptr inbounds [100 x %struct.Patient], [100 x %struct.Patient]* @b, i64 0, i64 %28, i32 0, i64 0
  %30 = getelementptr inbounds [100 x %struct.Patient], [100 x %struct.Patient]* @a, i64 0, i64 %22, i32 0, i64 0
  call void @llvm.memcpy.p0i8.p0i8.i64(i8* noundef nonnull align 16 dereferenceable(16) %29, i8* noundef nonnull align 16 dereferenceable(16) %30, i64 16, i1 false), !tbaa.struct !13
  %31 = add nsw i32 %23, 1
  br label %32

32:                                               ; preds = %21, %27
  %33 = phi i32 [ %31, %27 ], [ %23, %21 ]
  %34 = add nuw nsw i64 %22, 1
  %35 = icmp eq i64 %34, %18
  br i1 %35, label %19, label %21, !llvm.loop !15

36:                                               ; preds = %19, %58
  %37 = phi i32 [ %60, %58 ], [ %33, %19 ]
  %38 = phi i32 [ %59, %58 ], [ 0, %19 ]
  %39 = icmp sgt i32 %33, %38
  br i1 %39, label %40, label %58

40:                                               ; preds = %36
  %41 = zext i32 %37 to i64
  br label %45

42:                                               ; preds = %58
  br i1 %20, label %43, label %64

43:                                               ; preds = %42
  %44 = zext i32 %33 to i64
  br label %67

45:                                               ; preds = %40, %56
  %46 = phi i64 [ 0, %40 ], [ %49, %56 ]
  %47 = getelementptr inbounds [100 x %struct.Patient], [100 x %struct.Patient]* @b, i64 0, i64 %46, i32 1
  %48 = load i32, i32* %47, align 4, !tbaa !11
  %49 = add nuw nsw i64 %46, 1
  %50 = getelementptr inbounds [100 x %struct.Patient], [100 x %struct.Patient]* @b, i64 0, i64 %49, i32 1
  %51 = load i32, i32* %50, align 4, !tbaa !11
  %52 = icmp slt i32 %48, %51
  br i1 %52, label %53, label %56

53:                                               ; preds = %45
  %54 = getelementptr inbounds [100 x %struct.Patient], [100 x %struct.Patient]* @b, i64 0, i64 %46, i32 0, i64 0
  call void @llvm.memcpy.p0i8.p0i8.i64(i8* noundef nonnull align 4 dereferenceable(16) getelementptr inbounds (%struct.Patient, %struct.Patient* @e, i64 0, i32 0, i64 0), i8* noundef nonnull align 16 dereferenceable(16) %54, i64 16, i1 false), !tbaa.struct !13
  %55 = getelementptr inbounds [100 x %struct.Patient], [100 x %struct.Patient]* @b, i64 0, i64 %49, i32 0, i64 0
  call void @llvm.memcpy.p0i8.p0i8.i64(i8* noundef nonnull align 16 dereferenceable(16) %54, i8* noundef nonnull align 16 dereferenceable(16) %55, i64 16, i1 false), !tbaa.struct !13
  call void @llvm.memcpy.p0i8.p0i8.i64(i8* noundef nonnull align 16 dereferenceable(16) %55, i8* noundef nonnull align 4 dereferenceable(16) getelementptr inbounds (%struct.Patient, %struct.Patient* @e, i64 0, i32 0, i64 0), i64 16, i1 false), !tbaa.struct !13
  br label %56

56:                                               ; preds = %45, %53
  %57 = icmp eq i64 %49, %41
  br i1 %57, label %58, label %45, !llvm.loop !16

58:                                               ; preds = %56, %36
  %59 = add nuw nsw i32 %38, 1
  %60 = add i32 %37, -1
  %61 = icmp eq i32 %59, %33
  br i1 %61, label %42, label %36, !llvm.loop !17

62:                                               ; preds = %67
  %63 = load i32, i32* %1, align 4, !tbaa !5
  br label %64

64:                                               ; preds = %6, %19, %62, %42
  %65 = phi i32 [ %63, %62 ], [ %14, %42 ], [ %14, %19 ], [ %14, %6 ]
  %66 = icmp sgt i32 %65, 0
  br i1 %66, label %73, label %88

67:                                               ; preds = %43, %67
  %68 = phi i64 [ 0, %43 ], [ %71, %67 ]
  %69 = getelementptr inbounds [100 x %struct.Patient], [100 x %struct.Patient]* @b, i64 0, i64 %68, i32 0, i64 0
  %70 = call i32 @puts(i8* nonnull %69)
  %71 = add nuw nsw i64 %68, 1
  %72 = icmp eq i64 %71, %44
  br i1 %72, label %62, label %67, !llvm.loop !18

73:                                               ; preds = %64, %83
  %74 = phi i32 [ %84, %83 ], [ %65, %64 ]
  %75 = phi i64 [ %85, %83 ], [ 0, %64 ]
  %76 = getelementptr inbounds [100 x %struct.Patient], [100 x %struct.Patient]* @a, i64 0, i64 %75, i32 1
  %77 = load i32, i32* %76, align 4, !tbaa !11
  %78 = icmp slt i32 %77, 60
  br i1 %78, label %79, label %83

79:                                               ; preds = %73
  %80 = getelementptr inbounds [100 x %struct.Patient], [100 x %struct.Patient]* @a, i64 0, i64 %75, i32 0, i64 0
  %81 = call i32 @puts(i8* nonnull %80)
  %82 = load i32, i32* %1, align 4, !tbaa !5
  br label %83

83:                                               ; preds = %73, %79
  %84 = phi i32 [ %74, %73 ], [ %82, %79 ]
  %85 = add nuw nsw i64 %75, 1
  %86 = sext i32 %84 to i64
  %87 = icmp slt i64 %85, %86
  br i1 %87, label %73, label %88, !llvm.loop !19

88:                                               ; preds = %83, %0, %64
  call void @llvm.lifetime.end.p0i8(i64 4, i8* nonnull %2) #5
  ret i32 0
}

; Function Attrs: argmemonly mustprogress nofree nosync nounwind willreturn
declare void @llvm.lifetime.start.p0i8(i64 immarg, i8* nocapture) #1

; Function Attrs: nofree nounwind
declare noundef i32 @__isoc99_scanf(i8* nocapture noundef readonly, ...) local_unnamed_addr #2

; Function Attrs: argmemonly mustprogress nofree nounwind willreturn
declare void @llvm.memcpy.p0i8.p0i8.i64(i8* noalias nocapture writeonly, i8* noalias nocapture readonly, i64, i1 immarg) #3

; Function Attrs: argmemonly mustprogress nofree nosync nounwind willreturn
declare void @llvm.lifetime.end.p0i8(i64 immarg, i8* nocapture) #1

; Function Attrs: nofree nounwind
declare noundef i32 @puts(i8* nocapture noundef readonly) local_unnamed_addr #4


!llvm.module.flags = !{!0, !1, !2, !3}
!llvm.ident = !{!4}

!0 = !{i32 1, !"wchar_size", i32 4}
!1 = !{i32 7, !"PIC Level", i32 2}
!2 = !{i32 7, !"PIE Level", i32 2}
!3 = !{i32 7, !"uwtable", i32 1}
!4 = !{!"clang version 13.0.0"}
!5 = !{!6, !6, i64 0}
!6 = !{!"int", !7, i64 0}
!7 = !{!"omnipotent char", !8, i64 0}
!8 = !{!"Simple C/C++ TBAA"}
!9 = distinct !{!9, !10}
!10 = !{!"llvm.loop.mustprogress"}
!11 = !{!12, !6, i64 12}
!12 = !{!"Patient", !7, i64 0, !6, i64 12}
!13 = !{i64 0, i64 10, !14, i64 12, i64 4, !5}
!14 = !{!7, !7, i64 0}
!15 = distinct !{!15, !10}
!16 = distinct !{!16, !10}
!17 = distinct !{!17, !10}
!18 = distinct !{!18, !10}
!19 = distinct !{!19, !10}
